target datalayout = "e-m:e-p270:32:32-p271:32:32-p272:64:64-i64:64-i128:128-f80:128-n8:16:32:64-S128"
target triple = "x86_64-pc-linux-gnu"

%struct.AVFilterContext = type { ptr, ptr, ptr, ptr, ptr, i32, ptr, ptr, i32, ptr, ptr, i32, i32, ptr, ptr, ptr, ptr, i32, ptr, i32, i32 }
%struct.ConvolveContext = type { ptr, %struct.FFFrameSync, [4 x [16 x ptr]], [4 x [16 x ptr]], [4 x ptr], [4 x ptr], [4 x i32], [4 x i32], [4 x i32], [4 x i32], [4 x i32], [4 x i32], [4 x i32], [4 x ptr], [4 x ptr], [4 x ptr], [4 x ptr], [4 x ptr], [4 x ptr], [4 x ptr], [4 x ptr], i32, i32, i32, float, i32, [4 x i32], ptr, ptr, ptr, ptr }
%struct.FFFrameSync = type { ptr, ptr, i32, %struct.AVRational, i64, ptr, ptr, i32, i32, i8, i8, ptr, i32, i32, i32, i32 }
%struct.AVRational = type { i32, i32 }
%struct.AVChannelLayout = type { i32, i32, %union.anon.1, ptr }
%union.anon.1 = type { i64 }
%struct.ThreadData = type { ptr, ptr, ptr, ptr, i32, i32 }
%struct.AVFrame = type { [8 x ptr], [8 x i32], ptr, i32, i32, i32, i32, i32, %struct.AVRational, i64, i64, %struct.AVRational, i32, ptr, i32, i32, [8 x ptr], ptr, i32, ptr, i32, i32, i32, i32, i32, i32, i32, i64, ptr, i32, ptr, ptr, i64, i64, i64, i64, ptr, %struct.AVChannelLayout, i64 }

; Function Attrs: nounwind uwtable
define internal void @prepare_impulse(ptr noundef %0, ptr noundef %1, i32 noundef %2) #0 {
  %4 = alloca ptr, align 8
  %5 = alloca ptr, align 8
  %6 = alloca i32, align 4
  %7 = alloca ptr, align 8
  %8 = alloca i32, align 4
  %9 = alloca i32, align 4
  %10 = alloca i32, align 4
  %11 = alloca %struct.ThreadData, align 8
  %12 = alloca float, align 4
  %13 = alloca i32, align 4
  %14 = alloca i32, align 4
  %15 = alloca ptr, align 8
  %16 = alloca i32, align 4
  %17 = alloca i32, align 4
  %18 = alloca ptr, align 8
  %19 = alloca i32, align 4
  store ptr %0, ptr %4, align 8, !tbaa !4
  store ptr %1, ptr %5, align 8, !tbaa !80
  store i32 %2, ptr %6, align 4, !tbaa !37
  call void @llvm.lifetime.start.p0(i64 8, ptr %7) #10
  %20 = load ptr, ptr %4, align 8, !tbaa !4
  %21 = getelementptr inbounds nuw %struct.AVFilterContext, ptr %20, i32 0, i32 9
  %22 = load ptr, ptr %21, align 8, !tbaa !9
  store ptr %22, ptr %7, align 8, !tbaa !22
  call void @llvm.lifetime.start.p0(i64 4, ptr %8) #10
  %23 = load ptr, ptr %7, align 8, !tbaa !22
  %24 = getelementptr inbounds nuw %struct.ConvolveContext, ptr %23, i32 0, i32 6
  %25 = load i32, ptr %6, align 4, !tbaa !37
  %26 = sext i32 %25 to i64
  %27 = getelementptr inbounds [4 x i32], ptr %24, i64 0, i64 %26
  %28 = load i32, ptr %27, align 4, !tbaa !37
  store i32 %28, ptr %8, align 4, !tbaa !37
  call void @llvm.lifetime.start.p0(i64 4, ptr %9) #10
  %29 = load ptr, ptr %7, align 8, !tbaa !22
  %30 = getelementptr inbounds nuw %struct.ConvolveContext, ptr %29, i32 0, i32 11
  %31 = load i32, ptr %6, align 4, !tbaa !37
  %32 = sext i32 %31 to i64
  %33 = getelementptr inbounds [4 x i32], ptr %30, i64 0, i64 %32
  %34 = load i32, ptr %33, align 4, !tbaa !37
  store i32 %34, ptr %9, align 4, !tbaa !37
  call void @llvm.lifetime.start.p0(i64 4, ptr %10) #10
  %35 = load ptr, ptr %7, align 8, !tbaa !22
  %36 = getelementptr inbounds nuw %struct.ConvolveContext, ptr %35, i32 0, i32 12
  %37 = load i32, ptr %6, align 4, !tbaa !37
  %38 = sext i32 %37 to i64
  %39 = getelementptr inbounds [4 x i32], ptr %36, i64 0, i64 %38
  %40 = load i32, ptr %39, align 4, !tbaa !37
  store i32 %40, ptr %10, align 4, !tbaa !37
  call void @llvm.lifetime.start.p0(i64 40, ptr %11) #10
  call void @llvm.lifetime.start.p0(i64 4, ptr %12) #10
  store float 0.000000e+00, ptr %12, align 4, !tbaa !73
  %41 = load ptr, ptr %7, align 8, !tbaa !22
  %42 = getelementptr inbounds nuw %struct.ConvolveContext, ptr %41, i32 0, i32 21
  %43 = load i32, ptr %42, align 8, !tbaa !62
  %44 = icmp eq i32 %43, 8
  br i1 %44, label %45, label %91

45:                                               ; preds = %3
  call void @llvm.lifetime.start.p0(i64 4, ptr %13) #10
  store i32 0, ptr %13, align 4, !tbaa !37
  br label %46

46:                                               ; preds = %87, %45
  %47 = load i32, ptr %13, align 4, !tbaa !37
  %48 = load i32, ptr %10, align 4, !tbaa !37
  %49 = icmp slt i32 %47, %48
  br i1 %49, label %51, label %50

50:                                               ; preds = %46
  store i32 2, ptr %14, align 4
  call void @llvm.lifetime.end.p0(i64 4, ptr %13) #10
  br label %90

51:                                               ; preds = %46
  call void @llvm.lifetime.start.p0(i64 8, ptr %15) #10
  %52 = load ptr, ptr %5, align 8, !tbaa !80
  %53 = getelementptr inbounds nuw %struct.AVFrame, ptr %52, i32 0, i32 0
  %54 = load i32, ptr %6, align 4, !tbaa !37
  %55 = sext i32 %54 to i64
  %56 = getelementptr inbounds [8 x ptr], ptr %53, i64 0, i64 %55
  %57 = load ptr, ptr %56, align 8, !tbaa !109
  %58 = load i32, ptr %13, align 4, !tbaa !37
  %59 = load ptr, ptr %5, align 8, !tbaa !80
  %60 = getelementptr inbounds nuw %struct.AVFrame, ptr %59, i32 0, i32 1
  %61 = load i32, ptr %6, align 4, !tbaa !37
  %62 = sext i32 %61 to i64
  %63 = getelementptr inbounds [8 x i32], ptr %60, i64 0, i64 %62
  %64 = load i32, ptr %63, align 4, !tbaa !37
  %65 = mul nsw i32 %58, %64
  %66 = sext i32 %65 to i64
  %67 = getelementptr inbounds i8, ptr %57, i64 %66
  store ptr %67, ptr %15, align 8, !tbaa !109
  call void @llvm.lifetime.start.p0(i64 4, ptr %16) #10
  store i32 0, ptr %16, align 4, !tbaa !37
  br label %68

68:                                               ; preds = %83, %51
  %69 = load i32, ptr %16, align 4, !tbaa !37
  %70 = load i32, ptr %9, align 4, !tbaa !37
  %71 = icmp slt i32 %69, %70
  br i1 %71, label %73, label %72

72:                                               ; preds = %68
  store i32 5, ptr %14, align 4
  call void @llvm.lifetime.end.p0(i64 4, ptr %16) #10
  br label %86

73:                                               ; preds = %68
  %74 = load ptr, ptr %15, align 8, !tbaa !109
  %75 = load i32, ptr %16, align 4, !tbaa !37
  %76 = sext i32 %75 to i64
  %77 = getelementptr inbounds i8, ptr %74, i64 %76
  %78 = load i8, ptr %77, align 1, !tbaa !67
  %79 = zext i8 %78 to i32
  %80 = sitofp i32 %79 to float
  %81 = load float, ptr %12, align 4, !tbaa !73
  %82 = fadd nsz float %81, %80
  store float %82, ptr %12, align 4, !tbaa !73
  br label %83

83:                                               ; preds = %73
  %84 = load i32, ptr %16, align 4, !tbaa !37
  %85 = add nsw i32 %84, 1
  store i32 %85, ptr %16, align 4, !tbaa !37
  br label %68, !llvm.loop !110

86:                                               ; preds = %72
  call void @llvm.lifetime.end.p0(i64 8, ptr %15) #10
  br label %87

87:                                               ; preds = %86
  %88 = load i32, ptr %13, align 4, !tbaa !37
  %89 = add nsw i32 %88, 1
  store i32 %89, ptr %13, align 4, !tbaa !37
  br label %46, !llvm.loop !111

90:                                               ; preds = %50
  br label %137

91:                                               ; preds = %3
  call void @llvm.lifetime.start.p0(i64 4, ptr %17) #10
  store i32 0, ptr %17, align 4, !tbaa !37
  br label %92

92:                                               ; preds = %133, %91
  %93 = load i32, ptr %17, align 4, !tbaa !37
  %94 = load i32, ptr %10, align 4, !tbaa !37
  %95 = icmp slt i32 %93, %94
  br i1 %95, label %97, label %96

96:                                               ; preds = %92
  store i32 8, ptr %14, align 4
  call void @llvm.lifetime.end.p0(i64 4, ptr %17) #10
  br label %136

97:                                               ; preds = %92
  call void @llvm.lifetime.start.p0(i64 8, ptr %18) #10
  %98 = load ptr, ptr %5, align 8, !tbaa !80
  %99 = getelementptr inbounds nuw %struct.AVFrame, ptr %98, i32 0, i32 0
  %100 = load i32, ptr %6, align 4, !tbaa !37
  %101 = sext i32 %100 to i64
  %102 = getelementptr inbounds [8 x ptr], ptr %99, i64 0, i64 %101
  %103 = load ptr, ptr %102, align 8, !tbaa !109
  %104 = load i32, ptr %17, align 4, !tbaa !37
  %105 = load ptr, ptr %5, align 8, !tbaa !80
  %106 = getelementptr inbounds nuw %struct.AVFrame, ptr %105, i32 0, i32 1
  %107 = load i32, ptr %6, align 4, !tbaa !37
  %108 = sext i32 %107 to i64
  %109 = getelementptr inbounds [8 x i32], ptr %106, i64 0, i64 %108
  %110 = load i32, ptr %109, align 4, !tbaa !37
  %111 = mul nsw i32 %104, %110
  %112 = sext i32 %111 to i64
  %113 = getelementptr inbounds i8, ptr %103, i64 %112
  store ptr %113, ptr %18, align 8, !tbaa !112
  call void @llvm.lifetime.start.p0(i64 4, ptr %19) #10
  store i32 0, ptr %19, align 4, !tbaa !37
  br label %114

114:                                              ; preds = %129, %97
  %115 = load i32, ptr %19, align 4, !tbaa !37
  %116 = load i32, ptr %9, align 4, !tbaa !37
  %117 = icmp slt i32 %115, %116
  br i1 %117, label %119, label %118

118:                                              ; preds = %114
  store i32 11, ptr %14, align 4
  call void @llvm.lifetime.end.p0(i64 4, ptr %19) #10
  br label %132

119:                                              ; preds = %114
  %120 = load ptr, ptr %18, align 8, !tbaa !112
  %121 = load i32, ptr %19, align 4, !tbaa !37
  %122 = sext i32 %121 to i64
  %123 = getelementptr inbounds i16, ptr %120, i64 %122
  %124 = load i16, ptr %123, align 2, !tbaa !114
  %125 = zext i16 %124 to i32
  %126 = sitofp i32 %125 to float
  %127 = load float, ptr %12, align 4, !tbaa !73
  %128 = fadd nsz float %127, %126
  store float %128, ptr %12, align 4, !tbaa !73
  br label %129

129:                                              ; preds = %119
  %130 = load i32, ptr %19, align 4, !tbaa !37
  %131 = add nsw i32 %130, 1
  store i32 %131, ptr %19, align 4, !tbaa !37
  br label %114, !llvm.loop !116

132:                                              ; preds = %118
  call void @llvm.lifetime.end.p0(i64 8, ptr %18) #10
  br label %133

133:                                              ; preds = %132
  %134 = load i32, ptr %17, align 4, !tbaa !37
  %135 = add nsw i32 %134, 1
  store i32 %135, ptr %17, align 4, !tbaa !37
  br label %92, !llvm.loop !117

136:                                              ; preds = %96
  br label %137

137:                                              ; preds = %136, %90
  %138 = load float, ptr %12, align 4, !tbaa !73
  %139 = fcmp nsz ogt float 1.000000e+00, %138
  br i1 %139, label %140, label %141

140:                                              ; preds = %137
  br label %143

141:                                              ; preds = %137
  %142 = load float, ptr %12, align 4, !tbaa !73
  br label %143

143:                                              ; preds = %141, %140
  %144 = phi nsz float [ 1.000000e+00, %140 ], [ %142, %141 ]
  store float %144, ptr %12, align 4, !tbaa !73
  %145 = load ptr, ptr %7, align 8, !tbaa !22
  %146 = getelementptr inbounds nuw %struct.ConvolveContext, ptr %145, i32 0, i32 27
  %147 = load ptr, ptr %146, align 8, !tbaa !35
  %148 = load ptr, ptr %7, align 8, !tbaa !22
  %149 = load ptr, ptr %7, align 8, !tbaa !22
  %150 = getelementptr inbounds nuw %struct.ConvolveContext, ptr %149, i32 0, i32 17
  %151 = load i32, ptr %6, align 4, !tbaa !37
  %152 = sext i32 %151 to i64
  %153 = getelementptr inbounds [4 x ptr], ptr %150, i64 0, i64 %152
  %154 = load ptr, ptr %153, align 8, !tbaa !63
  %155 = load ptr, ptr %5, align 8, !tbaa !80
  %156 = load i32, ptr %9, align 4, !tbaa !37
  %157 = load i32, ptr %10, align 4, !tbaa !37
  %158 = load i32, ptr %8, align 4, !tbaa !37
  %159 = load i32, ptr %6, align 4, !tbaa !37
  %160 = load float, ptr %12, align 4, !tbaa !73
  %161 = fdiv nsz float 1.000000e+00, %160
  call void %147(ptr noundef %148, ptr noundef %154, ptr noundef %155, i32 noundef %156, i32 noundef %157, i32 noundef %158, i32 noundef %159, float noundef %161)
  %162 = load i32, ptr %8, align 4, !tbaa !37
  %163 = getelementptr inbounds nuw %struct.ThreadData, ptr %11, i32 0, i32 5
  store i32 %162, ptr %163, align 4, !tbaa !85
  %164 = load i32, ptr %6, align 4, !tbaa !37
  %165 = getelementptr inbounds nuw %struct.ThreadData, ptr %11, i32 0, i32 4
  store i32 %164, ptr %165, align 8, !tbaa !83
  %166 = load ptr, ptr %7, align 8, !tbaa !22
  %167 = getelementptr inbounds nuw %struct.ConvolveContext, ptr %166, i32 0, i32 17
  %168 = load i32, ptr %6, align 4, !tbaa !37
  %169 = sext i32 %168 to i64
  %170 = getelementptr inbounds [4 x ptr], ptr %167, i64 0, i64 %169
  %171 = load ptr, ptr %170, align 8, !tbaa !63
  %172 = getelementptr inbounds nuw %struct.ThreadData, ptr %11, i32 0, i32 0
  store ptr %171, ptr %172, align 8, !tbaa !86
  %173 = load ptr, ptr %7, align 8, !tbaa !22
  %174 = getelementptr inbounds nuw %struct.ConvolveContext, ptr %173, i32 0, i32 18
  %175 = load i32, ptr %6, align 4, !tbaa !37
  %176 = sext i32 %175 to i64
  %177 = getelementptr inbounds [4 x ptr], ptr %174, i64 0, i64 %176
  %178 = load ptr, ptr %177, align 8, !tbaa !63
  %179 = getelementptr inbounds nuw %struct.ThreadData, ptr %11, i32 0, i32 1
  store ptr %178, ptr %179, align 8, !tbaa !87
  %180 = load ptr, ptr %7, align 8, !tbaa !22
  %181 = getelementptr inbounds nuw %struct.ConvolveContext, ptr %180, i32 0, i32 19
  %182 = load i32, ptr %6, align 4, !tbaa !37
  %183 = sext i32 %182 to i64
  %184 = getelementptr inbounds [4 x ptr], ptr %181, i64 0, i64 %183
  %185 = load ptr, ptr %184, align 8, !tbaa !63
  %186 = getelementptr inbounds nuw %struct.ThreadData, ptr %11, i32 0, i32 2
  store ptr %185, ptr %186, align 8, !tbaa !88
  %187 = load ptr, ptr %7, align 8, !tbaa !22
  %188 = getelementptr inbounds nuw %struct.ConvolveContext, ptr %187, i32 0, i32 20
  %189 = load i32, ptr %6, align 4, !tbaa !37
  %190 = sext i32 %189 to i64
  %191 = getelementptr inbounds [4 x ptr], ptr %188, i64 0, i64 %190
  %192 = load ptr, ptr %191, align 8, !tbaa !63
  %193 = getelementptr inbounds nuw %struct.ThreadData, ptr %11, i32 0, i32 3
  store ptr %192, ptr %193, align 8, !tbaa !89
  %194 = load ptr, ptr %4, align 8, !tbaa !4
  %195 = load i32, ptr %8, align 4, !tbaa !37
  %196 = icmp sgt i32 16, %195
  br i1 %196, label %197, label %199

197:                                              ; preds = %143
  %198 = load i32, ptr %8, align 4, !tbaa !37
  br label %200

199:                                              ; preds = %143
  br label %200

200:                                              ; preds = %199, %197
  %201 = phi i32 [ %198, %197 ], [ 16, %199 ]
  %202 = load ptr, ptr %4, align 8, !tbaa !4
  %203 = call i32 @ff_filter_get_nb_threads(ptr noundef %202) #11
  %204 = icmp sgt i32 %201, %203
  br i1 %204, label %205, label %208

205:                                              ; preds = %200
  %206 = load ptr, ptr %4, align 8, !tbaa !4
  %207 = call i32 @ff_filter_get_nb_threads(ptr noundef %206) #11
  br label %216

208:                                              ; preds = %200
  %209 = load i32, ptr %8, align 4, !tbaa !37
  %210 = icmp sgt i32 16, %209
  br i1 %210, label %211, label %213

211:                                              ; preds = %208
  %212 = load i32, ptr %8, align 4, !tbaa !37
  br label %214

213:                                              ; preds = %208
  br label %214

214:                                              ; preds = %213, %211
  %215 = phi i32 [ %212, %211 ], [ 16, %213 ]
  br label %216

216:                                              ; preds = %214, %205
  %217 = phi i32 [ %207, %205 ], [ %215, %214 ]
  %218 = call i32 @ff_filter_execute(ptr noundef %194, ptr noundef @fft_horizontal, ptr noundef %11, ptr noundef null, i32 noundef %217)
  %219 = load ptr, ptr %4, align 8, !tbaa !4
  %220 = load i32, ptr %8, align 4, !tbaa !37
  %221 = icmp sgt i32 16, %220
  br i1 %221, label %222, label %224

222:                                              ; preds = %216
  %223 = load i32, ptr %8, align 4, !tbaa !37
  br label %225

224:                                              ; preds = %216
  br label %225

225:                                              ; preds = %224, %222
  %226 = phi i32 [ %223, %222 ], [ 16, %224 ]
  %227 = load ptr, ptr %4, align 8, !tbaa !4
  %228 = call i32 @ff_filter_get_nb_threads(ptr noundef %227) #11
  %229 = icmp sgt i32 %226, %228
  br i1 %229, label %230, label %233

230:                                              ; preds = %225
  %231 = load ptr, ptr %4, align 8, !tbaa !4
  %232 = call i32 @ff_filter_get_nb_threads(ptr noundef %231) #11
  br label %241

233:                                              ; preds = %225
  %234 = load i32, ptr %8, align 4, !tbaa !37
  %235 = icmp sgt i32 16, %234
  br i1 %235, label %236, label %238

236:                                              ; preds = %233
  %237 = load i32, ptr %8, align 4, !tbaa !37
  br label %239

238:                                              ; preds = %233
  br label %239

239:                                              ; preds = %238, %236
  %240 = phi i32 [ %237, %236 ], [ 16, %238 ]
  br label %241

241:                                              ; preds = %239, %230
  %242 = phi i32 [ %232, %230 ], [ %240, %239 ]
  %243 = call i32 @ff_filter_execute(ptr noundef %219, ptr noundef @fft_vertical, ptr noundef %11, ptr noundef null, i32 noundef %242)
  %244 = load ptr, ptr %7, align 8, !tbaa !22
  %245 = getelementptr inbounds nuw %struct.ConvolveContext, ptr %244, i32 0, i32 26
  %246 = load i32, ptr %6, align 4, !tbaa !37
  %247 = sext i32 %246 to i64
  %248 = getelementptr inbounds [4 x i32], ptr %245, i64 0, i64 %247
  store i32 1, ptr %248, align 4, !tbaa !37
  call void @llvm.lifetime.end.p0(i64 4, ptr %12) #10
  call void @llvm.lifetime.end.p0(i64 40, ptr %11) #10
  call void @llvm.lifetime.end.p0(i64 4, ptr %10) #10
  call void @llvm.lifetime.end.p0(i64 4, ptr %9) #10
  call void @llvm.lifetime.end.p0(i64 4, ptr %8) #10
  call void @llvm.lifetime.end.p0(i64 8, ptr %7) #10
  ret void
}