; Function Attrs: nounwind uwtable
define internal void @prepare_impulse(ptr noundef %0, ptr noundef %1, i32 noundef %2) #0 {
  %4 = alloca %struct.ThreadData, align 8
  %5 = getelementptr inbounds nuw i8, ptr %0, i64 72
  %6 = load ptr, ptr %5, align 8, !tbaa !4
  %7 = getelementptr inbounds nuw i8, ptr %6, i64 1192
  %8 = sext i32 %2 to i64
  %9 = getelementptr inbounds [4 x i32], ptr %7, i64 0, i64 %8
  %10 = load i32, ptr %9, align 4, !tbaa !49
  %11 = getelementptr inbounds nuw i8, ptr %6, i64 1272
  %12 = getelementptr inbounds [4 x i32], ptr %11, i64 0, i64 %8
  %13 = load i32, ptr %12, align 4, !tbaa !49
  %14 = getelementptr inbounds nuw i8, ptr %6, i64 1288
  %15 = getelementptr inbounds [4 x i32], ptr %14, i64 0, i64 %8
  %16 = load i32, ptr %15, align 4, !tbaa !49
  call void @llvm.lifetime.start.p0(i64 40, ptr nonnull %4) #14
  %17 = getelementptr inbounds nuw i8, ptr %6, i64 1560
  %18 = load i32, ptr %17, align 8, !tbaa !55
  %19 = icmp eq i32 %18, 8
  %20 = icmp sgt i32 %16, 0
  br i1 %19, label %.preheader, label %.preheader81

.preheader81:                                     ; preds = %3
  br i1 %20, label %.lr.ph87, label %.loopexit

.lr.ph87:                                         ; preds = %.preheader81
  %21 = getelementptr inbounds [8 x ptr], ptr %1, i64 0, i64 %8
  %22 = load ptr, ptr %21, align 8, !tbaa !97
  %23 = icmp sgt i32 %13, 0
  br i1 %23, label %.lr.ph.us.preheader, label %.loopexit

.lr.ph.us.preheader:                              ; preds = %.lr.ph87
  %24 = getelementptr inbounds nuw i8, ptr %1, i64 64
  %25 = getelementptr inbounds [8 x i32], ptr %24, i64 0, i64 %8
  %26 = load i32, ptr %25, align 4, !tbaa !49
  %27 = sext i32 %26 to i64
  %wide.trip.count107 = zext nneg i32 %16 to i64
  %wide.trip.count = zext nneg i32 %13 to i64
  br label %.lr.ph.us

.lr.ph.us:                                        ; preds = %.lr.ph.us.preheader, %._crit_edge.us
  %indvars.iv104 = phi i64 [ 0, %.lr.ph.us.preheader ], [ %indvars.iv.next105, %._crit_edge.us ]
  %.386.us = phi float [ 0.000000e+00, %.lr.ph.us.preheader ], [ %34, %._crit_edge.us ]
  %28 = mul nsw i64 %indvars.iv104, %27
  %29 = getelementptr inbounds i8, ptr %22, i64 %28
  br label %30

30:                                               ; preds = %.lr.ph.us, %30
  %indvars.iv = phi i64 [ 0, %.lr.ph.us ], [ %indvars.iv.next, %30 ]
  %.483.us = phi float [ %.386.us, %.lr.ph.us ], [ %34, %30 ]
  %31 = getelementptr inbounds nuw i16, ptr %29, i64 %indvars.iv
  %32 = load i16, ptr %31, align 2, !tbaa !98
  %33 = uitofp i16 %32 to float
  %34 = fadd nsz float %.483.us, %33
  %indvars.iv.next = add nuw nsw i64 %indvars.iv, 1
  %exitcond.not = icmp eq i64 %indvars.iv.next, %wide.trip.count
  br i1 %exitcond.not, label %._crit_edge.us, label %30, !llvm.loop !100

._crit_edge.us:                                   ; preds = %30
  %indvars.iv.next105 = add nuw nsw i64 %indvars.iv104, 1
  %exitcond108.not = icmp eq i64 %indvars.iv.next105, %wide.trip.count107
  br i1 %exitcond108.not, label %.loopexit, label %.lr.ph.us, !llvm.loop !101

.preheader:                                       ; preds = %3
  br i1 %20, label %.lr.ph93, label %.loopexit

.lr.ph93:                                         ; preds = %.preheader
  %35 = getelementptr inbounds [8 x ptr], ptr %1, i64 0, i64 %8
  %36 = load ptr, ptr %35, align 8, !tbaa !97
  %37 = icmp sgt i32 %13, 0
  br i1 %37, label %.lr.ph.us95.preheader, label %.loopexit

.lr.ph.us95.preheader:                            ; preds = %.lr.ph93
  %38 = getelementptr inbounds nuw i8, ptr %1, i64 64
  %39 = getelementptr inbounds [8 x i32], ptr %38, i64 0, i64 %8
  %40 = load i32, ptr %39, align 4, !tbaa !49
  %41 = sext i32 %40 to i64
  %wide.trip.count117 = zext nneg i32 %16 to i64
  %wide.trip.count112 = zext nneg i32 %13 to i64
  br label %.lr.ph.us95

.lr.ph.us95:                                      ; preds = %.lr.ph.us95.preheader, %._crit_edge.us96
  %indvars.iv114 = phi i64 [ 0, %.lr.ph.us95.preheader ], [ %indvars.iv.next115, %._crit_edge.us96 ]
  %.07392.us = phi float [ 0.000000e+00, %.lr.ph.us95.preheader ], [ %48, %._crit_edge.us96 ]
  %42 = mul nsw i64 %indvars.iv114, %41
  %43 = getelementptr inbounds i8, ptr %36, i64 %42
  br label %44

44:                                               ; preds = %.lr.ph.us95, %44
  %indvars.iv109 = phi i64 [ 0, %.lr.ph.us95 ], [ %indvars.iv.next110, %44 ]
  %.190.us = phi float [ %.07392.us, %.lr.ph.us95 ], [ %48, %44 ]
  %45 = getelementptr inbounds nuw i8, ptr %43, i64 %indvars.iv109
  %46 = load i8, ptr %45, align 1, !tbaa !57
  %47 = uitofp i8 %46 to float
  %48 = fadd nsz float %.190.us, %47
  %indvars.iv.next110 = add nuw nsw i64 %indvars.iv109, 1
  %exitcond113.not = icmp eq i64 %indvars.iv.next110, %wide.trip.count112
  br i1 %exitcond113.not, label %._crit_edge.us96, label %44, !llvm.loop !102

._crit_edge.us96:                                 ; preds = %44
  %indvars.iv.next115 = add nuw nsw i64 %indvars.iv114, 1
  %exitcond118.not = icmp eq i64 %indvars.iv.next115, %wide.trip.count117
  br i1 %exitcond118.not, label %.loopexit, label %.lr.ph.us95, !llvm.loop !103

.loopexit:                                        ; preds = %._crit_edge.us, %._crit_edge.us96, %.lr.ph93, %.lr.ph87, %.preheader81, %.preheader
  %.2 = phi nsz float [ 0.000000e+00, %.preheader ], [ 0.000000e+00, %.preheader81 ], [ 0.000000e+00, %.lr.ph87 ], [ 0.000000e+00, %.lr.ph93 ], [ %48, %._crit_edge.us96 ], [ %34, %._crit_edge.us ]
  %49 = fcmp nsz olt float %.2, 1.000000e+00
  %50 = select nsz i1 %49, float 1.000000e+00, float %.2
  %51 = getelementptr inbounds nuw i8, ptr %6, i64 1600
  %52 = load ptr, ptr %51, align 8, !tbaa !32
  %53 = getelementptr inbounds nuw i8, ptr %6, i64 1432
  %54 = getelementptr inbounds [4 x ptr], ptr %53, i64 0, i64 %8
  %55 = load ptr, ptr %54, align 8, !tbaa !58
  %56 = fdiv nsz float 1.000000e+00, %50
  tail call void %52(ptr noundef %6, ptr noundef %55, ptr noundef %1, i32 noundef %13, i32 noundef %16, i32 noundef %10, i32 noundef %2, float noundef %56) #14
  %57 = getelementptr inbounds nuw i8, ptr %4, i64 36
  store i32 %10, ptr %57, align 4, !tbaa !75
  %58 = getelementptr inbounds nuw i8, ptr %4, i64 32
  store i32 %2, ptr %58, align 8, !tbaa !73
  %59 = load ptr, ptr %54, align 8, !tbaa !58
  store ptr %59, ptr %4, align 8, !tbaa !76
  %60 = getelementptr inbounds nuw i8, ptr %6, i64 1464
  %61 = getelementptr inbounds [4 x ptr], ptr %60, i64 0, i64 %8
  %62 = load ptr, ptr %61, align 8, !tbaa !58
  %63 = getelementptr inbounds nuw i8, ptr %4, i64 8
  store ptr %62, ptr %63, align 8, !tbaa !77
  %64 = getelementptr inbounds nuw i8, ptr %6, i64 1496
  %65 = getelementptr inbounds [4 x ptr], ptr %64, i64 0, i64 %8
  %66 = load ptr, ptr %65, align 8, !tbaa !58
  %67 = getelementptr inbounds nuw i8, ptr %4, i64 16
  store ptr %66, ptr %67, align 8, !tbaa !78
  %68 = getelementptr inbounds nuw i8, ptr %6, i64 1528
  %69 = getelementptr inbounds [4 x ptr], ptr %68, i64 0, i64 %8
  %70 = load ptr, ptr %69, align 8, !tbaa !58
  %71 = getelementptr inbounds nuw i8, ptr %4, i64 24
  store ptr %70, ptr %71, align 8, !tbaa !79
  %72 = tail call i32 @llvm.smin.i32(i32 %10, i32 16)
  %73 = tail call i32 @ff_filter_get_nb_threads(ptr noundef %0) #15
  %. = tail call i32 @llvm.smin.i32(i32 %72, i32 %73)
  %74 = call i32 @ff_filter_execute(ptr noundef %0, ptr noundef nonnull @fft_horizontal, ptr noundef nonnull %4, ptr noundef null, i32 noundef %.) #14
  %75 = call i32 @ff_filter_get_nb_threads(ptr noundef %0) #15
  %76 = call i32 @llvm.smin.i32(i32 %72, i32 %75)
  %77 = call i32 @ff_filter_execute(ptr noundef %0, ptr noundef nonnull @fft_vertical, ptr noundef nonnull %4, ptr noundef null, i32 noundef %76) #14
  %78 = getelementptr inbounds nuw i8, ptr %6, i64 1580
  %79 = getelementptr inbounds [4 x i32], ptr %78, i64 0, i64 %8
  store i32 1, ptr %79, align 4, !tbaa !49
  call void @llvm.lifetime.end.p0(i64 40, ptr nonnull %4) #14
  ret void
}